target datalayout = "e-m:e-p270:32:32-p271:32:32-p272:64:64-i64:64-f80:128-n8:16:32:64-S128"
target triple = "x86_64-pc-linux-gnu"

@.str = private unnamed_addr constant [4 x i8] c"%d\0A\00", align 1
@.str.1 = private unnamed_addr constant [3 x i8] c"%d\00", align 1
@.str.2 = private unnamed_addr constant [4 x i8] c" %d\00", align 1

; Function Attrs: noinline nounwind uwtable
define dso_local i32 @main() #0 {
  %1 = alloca i32, align 4
  %2 = alloca i32, align 4
  %3 = alloca i32, align 4
  %4 = alloca i32, align 4
  %5 = alloca i32, align 4
  %6 = alloca i32, align 4
  %7 = alloca i32, align 4
  %8 = alloca i32, align 4
  %9 = alloca i32, align 4
  %10 = alloca i32, align 4
  %11 = alloca [25 x i32], align 16
  %12 = alloca [25 x i32], align 16
  %13 = alloca [25 x i32], align 16
  store i32 0, i32* %1, align 4
  store i32 0, i32* %10, align 4
  store i32 0, i32* %3, align 4
  br label %14

14:                                               ; preds = %21, %0
  %15 = load i32, i32* %3, align 4
  %16 = icmp slt i32 %15, 25
  br i1 %16, label %17, label %24

17:                                               ; preds = %14
  %18 = load i32, i32* %3, align 4
  %19 = sext i32 %18 to i64
  %20 = getelementptr inbounds [25 x i32], [25 x i32]* %12, i64 0, i64 %19
  store i32 1, i32* %20, align 4
  br label %21

21:                                               ; preds = %17
  %22 = load i32, i32* %3, align 4
  %23 = add nsw i32 %22, 1
  store i32 %23, i32* %3, align 4
  br label %14

24:                                               ; preds = %14
  store i32 0, i32* %3, align 4
  %25 = call i32 (i8*, ...) @__isoc99_scanf(i8* getelementptr inbounds ([4 x i8], [4 x i8]* @.str, i64 0, i64 0), i32* %2)
  store i32 0, i32* %3, align 4
  br label %26

26:                                               ; preds = %42, %24
  %27 = load i32, i32* %3, align 4
  %28 = load i32, i32* %2, align 4
  %29 = icmp slt i32 %27, %28
  br i1 %29, label %30, label %45

30:                                               ; preds = %26
  %31 = load i32, i32* %3, align 4
  %32 = icmp eq i32 %31, 0
  br i1 %32, label %33, label %36

33:                                               ; preds = %30
  %34 = getelementptr inbounds [25 x i32], [25 x i32]* %11, i64 0, i64 0
  %35 = call i32 (i8*, ...) @__isoc99_scanf(i8* getelementptr inbounds ([3 x i8], [3 x i8]* @.str.1, i64 0, i64 0), i32* %34)
  br label %41

36:                                               ; preds = %30
  %37 = load i32, i32* %3, align 4
  %38 = sext i32 %37 to i64
  %39 = getelementptr inbounds [25 x i32], [25 x i32]* %11, i64 0, i64 %38
  %40 = call i32 (i8*, ...) @__isoc99_scanf(i8* getelementptr inbounds ([4 x i8], [4 x i8]* @.str.2, i64 0, i64 0), i32* %39)
  br label %41

41:                                               ; preds = %36, %33
  br label %42

42:                                               ; preds = %41
  %43 = load i32, i32* %3, align 4
  %44 = add nsw i32 %43, 1
  store i32 %44, i32* %3, align 4
  br label %26

45:                                               ; preds = %26
  %46 = load i32, i32* %2, align 4
  %47 = icmp eq i32 %46, 1
  br i1 %47, label %51, label %48

48:                                               ; preds = %45
  %49 = load i32, i32* %2, align 4
  %50 = icmp eq i32 %49, 0
  br i1 %50, label %51, label %54

51:                                               ; preds = %48, %45
  %52 = load i32, i32* %2, align 4
  %53 = call i32 (i8*, ...) @printf(i8* getelementptr inbounds ([3 x i8], [3 x i8]* @.str.1, i64 0, i64 0), i32 %52)
  br label %205

54:                                               ; preds = %48
  %55 = load i32, i32* %2, align 4
  %56 = sub nsw i32 %55, 2
  store i32 %56, i32* %4, align 4
  br label %57

57:                                               ; preds = %162, %54
  %58 = load i32, i32* %4, align 4
  %59 = icmp sge i32 %58, 0
  br i1 %59, label %60, label %165

60:                                               ; preds = %57
  %61 = load i32, i32* %4, align 4
  %62 = add nsw i32 %61, 1
  store i32 %62, i32* %9, align 4
  br label %63

63:                                               ; preds = %88, %60
  %64 = load i32, i32* %9, align 4
  %65 = load i32, i32* %2, align 4
  %66 = icmp slt i32 %64, %65
  br i1 %66, label %67, label %91

67:                                               ; preds = %63
  %68 = load i32, i32* %4, align 4
  %69 = sext i32 %68 to i64
  %70 = getelementptr inbounds [25 x i32], [25 x i32]* %11, i64 0, i64 %69
  %71 = load i32, i32* %70, align 4
  %72 = load i32, i32* %9, align 4
  %73 = sext i32 %72 to i64
  %74 = getelementptr inbounds [25 x i32], [25 x i32]* %11, i64 0, i64 %73
  %75 = load i32, i32* %74, align 4
  %76 = icmp sge i32 %71, %75
  br i1 %76, label %77, label %87

77:                                               ; preds = %67
  %78 = load i32, i32* %9, align 4
  %79 = sext i32 %78 to i64
  %80 = getelementptr inbounds [25 x i32], [25 x i32]* %12, i64 0, i64 %79
  %81 = load i32, i32* %80, align 4
  %82 = load i32, i32* %10, align 4
  %83 = sext i32 %82 to i64
  %84 = getelementptr inbounds [25 x i32], [25 x i32]* %13, i64 0, i64 %83
  store i32 %81, i32* %84, align 4
  %85 = load i32, i32* %10, align 4
  %86 = add nsw i32 %85, 1
  store i32 %86, i32* %10, align 4
  br label %87

87:                                               ; preds = %77, %67
  br label %88

88:                                               ; preds = %87
  %89 = load i32, i32* %9, align 4
  %90 = add nsw i32 %89, 1
  store i32 %90, i32* %9, align 4
  br label %63

91:                                               ; preds = %63
  %92 = load i32, i32* %10, align 4
  %93 = icmp eq i32 %92, 0
  br i1 %93, label %94, label %98

94:                                               ; preds = %91
  %95 = load i32, i32* %4, align 4
  %96 = sext i32 %95 to i64
  %97 = getelementptr inbounds [25 x i32], [25 x i32]* %12, i64 0, i64 %96
  store i32 1, i32* %97, align 4
  br label %161

98:                                               ; preds = %91
  %99 = load i32, i32* %10, align 4
  %100 = icmp eq i32 %99, 1
  br i1 %100, label %101, label %112

101:                                              ; preds = %98
  %102 = getelementptr inbounds [25 x i32], [25 x i32]* %13, i64 0, i64 0
  %103 = load i32, i32* %102, align 16
  %104 = load i32, i32* %4, align 4
  %105 = sext i32 %104 to i64
  %106 = getelementptr inbounds [25 x i32], [25 x i32]* %12, i64 0, i64 %105
  %107 = load i32, i32* %106, align 4
  %108 = add nsw i32 %103, %107
  %109 = load i32, i32* %4, align 4
  %110 = sext i32 %109 to i64
  %111 = getelementptr inbounds [25 x i32], [25 x i32]* %12, i64 0, i64 %110
  store i32 %108, i32* %111, align 4
  br label %160

112:                                              ; preds = %98
  store i32 0, i32* %7, align 4
  br label %113

113:                                              ; preds = %142, %112
  %114 = load i32, i32* %7, align 4
  %115 = load i32, i32* %10, align 4
  %116 = sub nsw i32 %115, 1
  %117 = icmp slt i32 %114, %116
  br i1 %117, label %118, label %145

118:                                              ; preds = %113
  %119 = load i32, i32* %7, align 4
  %120 = sext i32 %119 to i64
  %121 = getelementptr inbounds [25 x i32], [25 x i32]* %13, i64 0, i64 %120
  %122 = load i32, i32* %121, align 4
  store i32 %122, i32* %5, align 4
  %123 = load i32, i32* %7, align 4
  %124 = add nsw i32 %123, 1
  %125 = sext i32 %124 to i64
  %126 = getelementptr inbounds [25 x i32], [25 x i32]* %13, i64 0, i64 %125
  %127 = load i32, i32* %126, align 4
  store i32 %127, i32* %6, align 4
  %128 = load i32, i32* %5, align 4
  %129 = load i32, i32* %6, align 4
  %130 = icmp sgt i32 %128, %129
  br i1 %130, label %131, label %141

131:                                              ; preds = %118
  %132 = load i32, i32* %6, align 4
  %133 = load i32, i32* %7, align 4
  %134 = sext i32 %133 to i64
  %135 = getelementptr inbounds [25 x i32], [25 x i32]* %13, i64 0, i64 %134
  store i32 %132, i32* %135, align 4
  %136 = load i32, i32* %5, align 4
  %137 = load i32, i32* %7, align 4
  %138 = add nsw i32 %137, 1
  %139 = sext i32 %138 to i64
  %140 = getelementptr inbounds [25 x i32], [25 x i32]* %13, i64 0, i64 %139
  store i32 %136, i32* %140, align 4
  br label %141

141:                                              ; preds = %131, %118
  br label %142

142:                                              ; preds = %141
  %143 = load i32, i32* %7, align 4
  %144 = add nsw i32 %143, 1
  store i32 %144, i32* %7, align 4
  br label %113

145:                                              ; preds = %113
  %146 = load i32, i32* %10, align 4
  %147 = sub nsw i32 %146, 1
  %148 = sext i32 %147 to i64
  %149 = getelementptr inbounds [25 x i32], [25 x i32]* %13, i64 0, i64 %148
  %150 = load i32, i32* %149, align 4
  %151 = load i32, i32* %4, align 4
  %152 = sext i32 %151 to i64
  %153 = getelementptr inbounds [25 x i32], [25 x i32]* %12, i64 0, i64 %152
  %154 = load i32, i32* %153, align 4
  %155 = add nsw i32 %150, %154
  %156 = load i32, i32* %4, align 4
  %157 = sext i32 %156 to i64
  %158 = getelementptr inbounds [25 x i32], [25 x i32]* %12, i64 0, i64 %157
  store i32 %155, i32* %158, align 4
  store i32 0, i32* %10, align 4
  store i32 0, i32* %7, align 4
  %159 = load i32, i32* %4, align 4
  store i32 %159, i32* %9, align 4
  br label %160

160:                                              ; preds = %145, %101
  br label %161

161:                                              ; preds = %160, %94
  br label %162

162:                                              ; preds = %161
  %163 = load i32, i32* %4, align 4
  %164 = add nsw i32 %163, -1
  store i32 %164, i32* %4, align 4
  br label %57

165:                                              ; preds = %57
  store i32 0, i32* %8, align 4
  br label %166

166:                                              ; preds = %195, %165
  %167 = load i32, i32* %8, align 4
  %168 = load i32, i32* %2, align 4
  %169 = sub nsw i32 %168, 1
  %170 = icmp slt i32 %167, %169
  br i1 %170, label %171, label %198

171:                                              ; preds = %166
  %172 = load i32, i32* %8, align 4
  %173 = sext i32 %172 to i64
  %174 = getelementptr inbounds [25 x i32], [25 x i32]* %12, i64 0, i64 %173
  %175 = load i32, i32* %174, align 4
  store i32 %175, i32* %5, align 4
  %176 = load i32, i32* %8, align 4
  %177 = add nsw i32 %176, 1
  %178 = sext i32 %177 to i64
  %179 = getelementptr inbounds [25 x i32], [25 x i32]* %12, i64 0, i64 %178
  %180 = load i32, i32* %179, align 4
  store i32 %180, i32* %6, align 4
  %181 = load i32, i32* %5, align 4
  %182 = load i32, i32* %6, align 4
  %183 = icmp sgt i32 %181, %182
  br i1 %183, label %184, label %194

184:                                              ; preds = %171
  %185 = load i32, i32* %6, align 4
  %186 = load i32, i32* %8, align 4
  %187 = sext i32 %186 to i64
  %188 = getelementptr inbounds [25 x i32], [25 x i32]* %12, i64 0, i64 %187
  store i32 %185, i32* %188, align 4
  %189 = load i32, i32* %5, align 4
  %190 = load i32, i32* %8, align 4
  %191 = add nsw i32 %190, 1
  %192 = sext i32 %191 to i64
  %193 = getelementptr inbounds [25 x i32], [25 x i32]* %12, i64 0, i64 %192
  store i32 %189, i32* %193, align 4
  br label %194

194:                                              ; preds = %184, %171
  br label %195

195:                                              ; preds = %194
  %196 = load i32, i32* %8, align 4
  %197 = add nsw i32 %196, 1
  store i32 %197, i32* %8, align 4
  br label %166

198:                                              ; preds = %166
  %199 = load i32, i32* %2, align 4
  %200 = sub nsw i32 %199, 1
  %201 = sext i32 %200 to i64
  %202 = getelementptr inbounds [25 x i32], [25 x i32]* %12, i64 0, i64 %201
  %203 = load i32, i32* %202, align 4
  %204 = call i32 (i8*, ...) @printf(i8* getelementptr inbounds ([3 x i8], [3 x i8]* @.str.1, i64 0, i64 0), i32 %203)
  br label %205

205:                                              ; preds = %198, %51
  %206 = load i32, i32* %1, align 4
  ret i32 %206
}